target datalayout = "e-m:e-p270:32:32-p271:32:32-p272:64:64-i64:64-i128:128-f80:128-n8:16:32:64-S128"
target triple = "x86_64-pc-linux-gnu"

%struct.lhash_st = type { ptr, ptr, ptr, ptr, ptr, ptr, ptr, i32, i32, i32, i32, i64, i64, i64, i32 }

; Function Attrs: nounwind uwtable
define ptr @OPENSSL_LH_set_thunks(ptr noundef %0, ptr noundef %1, ptr noundef %2, ptr noundef %3, ptr noundef %4) #0 {
  %6 = alloca ptr, align 8
  %7 = alloca ptr, align 8
  %8 = alloca ptr, align 8
  %9 = alloca ptr, align 8
  %10 = alloca ptr, align 8
  %11 = alloca ptr, align 8
  store ptr %0, ptr %7, align 8, !tbaa !3
  store ptr %1, ptr %8, align 8, !tbaa !8
  store ptr %2, ptr %9, align 8, !tbaa !8
  store ptr %3, ptr %10, align 8, !tbaa !8
  store ptr %4, ptr %11, align 8, !tbaa !8
  %12 = load ptr, ptr %7, align 8, !tbaa !3
  %13 = icmp eq ptr %12, null
  br i1 %13, label %14, label %15

14:                                               ; preds = %5
  store ptr null, ptr %6, align 8
  br label %29

15:                                               ; preds = %5
  %16 = load ptr, ptr %9, align 8, !tbaa !8
  %17 = load ptr, ptr %7, align 8, !tbaa !3
  %18 = getelementptr inbounds nuw %struct.lhash_st, ptr %17, i32 0, i32 4
  store ptr %16, ptr %18, align 8, !tbaa !9
  %19 = load ptr, ptr %8, align 8, !tbaa !8
  %20 = load ptr, ptr %7, align 8, !tbaa !3
  %21 = getelementptr inbounds nuw %struct.lhash_st, ptr %20, i32 0, i32 3
  store ptr %19, ptr %21, align 8, !tbaa !14
  %22 = load ptr, ptr %10, align 8, !tbaa !8
  %23 = load ptr, ptr %7, align 8, !tbaa !3
  %24 = getelementptr inbounds nuw %struct.lhash_st, ptr %23, i32 0, i32 5
  store ptr %22, ptr %24, align 8, !tbaa !15
  %25 = load ptr, ptr %11, align 8, !tbaa !8
  %26 = load ptr, ptr %7, align 8, !tbaa !3
  %27 = getelementptr inbounds nuw %struct.lhash_st, ptr %26, i32 0, i32 6
  store ptr %25, ptr %27, align 8, !tbaa !16
  %28 = load ptr, ptr %7, align 8, !tbaa !3
  store ptr %28, ptr %6, align 8
  br label %29

29:                                               ; preds = %15, %14
  %30 = load ptr, ptr %6, align 8
  ret ptr %30
}